target datalayout = "e-m:e-p270:32:32-p271:32:32-p272:64:64-i64:64-i128:128-f80:128-n8:16:32:64-S128"
target triple = "x86_64-pc-linux-gnu"

%struct.erf_private = type { ptr, ptr, i64, i64, i64 }
%struct.wtap = type { ptr, ptr, i8, i32, i32, ptr, ptr, ptr, i32, ptr, ptr, ptr, ptr, ptr, ptr, ptr, ptr, ptr, ptr, i32, i32, ptr, ptr, ptr, ptr }

; Function Attrs: null_pointer_is_valid sspstrong uwtable
define hidden ptr @erf_priv_free(ptr noundef %0) #0 {
  %2 = alloca ptr, align 8
  store ptr %0, ptr %2, align 8
  %3 = load ptr, ptr %2, align 8
  %4 = icmp ne ptr %3, null
  br i1 %4, label %5, label %13

5:                                                ; preds = %1
  %6 = load ptr, ptr %2, align 8
  %7 = getelementptr inbounds nuw %struct.erf_private, ptr %6, i32 0, i32 1
  %8 = load ptr, ptr %7, align 8
  call void @g_hash_table_destroy(ptr noundef %8)
  %9 = load ptr, ptr %2, align 8
  %10 = getelementptr inbounds nuw %struct.erf_private, ptr %9, i32 0, i32 0
  %11 = load ptr, ptr %10, align 8
  call void @g_hash_table_destroy(ptr noundef %11)
  %12 = load ptr, ptr %2, align 8
  call void @g_free(ptr noundef %12)
  br label %13

13:                                               ; preds = %5, %1
  ret ptr null
}

; Function Attrs: null_pointer_is_valid sspstrong uwtable
define internal void @erf_close(ptr noundef %0) #0 {
  %2 = alloca ptr, align 8
  %3 = alloca ptr, align 8
  store ptr %0, ptr %2, align 8
  call void @llvm.lifetime.start.p0(i64 8, ptr %3) #16
  %4 = load ptr, ptr %2, align 8
  %5 = getelementptr inbounds nuw %struct.wtap, ptr %4, i32 0, i32 13
  %6 = load ptr, ptr %5, align 8
  store ptr %6, ptr %3, align 8
  %7 = load ptr, ptr %3, align 8
  %8 = call ptr @erf_priv_free(ptr noundef %7)
  %9 = load ptr, ptr %2, align 8
  %10 = getelementptr inbounds nuw %struct.wtap, ptr %9, i32 0, i32 13
  store ptr null, ptr %10, align 8
  call void @llvm.lifetime.end.p0(i64 8, ptr %3) #16
  ret void
}