; Function Attrs: null_pointer_is_valid sspstrong uwtable
define internal void @erf_close(ptr noundef captures(none) %0) #0 {
  %2 = getelementptr inbounds nuw i8, ptr %0, i64 96
  %3 = load ptr, ptr %2, align 8
  %.not.i = icmp eq ptr %3, null
  br i1 %.not.i, label %erf_priv_free.exit, label %4

4:                                                ; preds = %1
  %5 = getelementptr inbounds nuw i8, ptr %3, i64 8
  %6 = load ptr, ptr %5, align 8
  tail call void @g_hash_table_destroy(ptr noundef %6)
  %7 = load ptr, ptr %3, align 8
  tail call void @g_hash_table_destroy(ptr noundef %7)
  tail call void @g_free(ptr noundef nonnull %3)
  br label %erf_priv_free.exit

erf_priv_free.exit:                               ; preds = %1, %4
  store ptr null, ptr %2, align 8
  ret void
}